; Function Attrs: inlinehint mustprogress nofree norecurse nosync nounwind willreturn memory(read, argmem: readwrite, inaccessiblemem: none) uwtable
define internal fastcc range(i32 0, 134217728) i32 @get_bits_long(ptr noundef nonnull captures(none) %0) unnamed_addr #6 {
  %2 = getelementptr inbounds nuw i8, ptr %0, i64 16
  %3 = load i32, ptr %2, align 8, !tbaa !37
  %4 = getelementptr inbounds nuw i8, ptr %0, i64 24
  %5 = load i32, ptr %4, align 8, !tbaa !18
  %6 = load ptr, ptr %0, align 8, !tbaa !15
  %7 = lshr i32 %3, 3
  %8 = zext nneg i32 %7 to i64
  %9 = getelementptr inbounds nuw i8, ptr %6, i64 %8
  %10 = load i32, ptr %9, align 1, !tbaa !20
  %11 = tail call i32 @llvm.bswap.i32(i32 %10)
  %12 = and i32 %3, 7
  %13 = shl i32 %11, %12
  %14 = add i32 %3, 16
  %15 = tail call i32 @llvm.umin.i32(i32 %5, i32 %14)
  store i32 %15, ptr %2, align 8, !tbaa !37
  %16 = lshr i32 %15, 3
  %17 = zext nneg i32 %16 to i64
  %18 = getelementptr inbounds nuw i8, ptr %6, i64 %17
  %19 = load i32, ptr %18, align 1, !tbaa !20
  %20 = tail call i32 @llvm.bswap.i32(i32 %19)
  %21 = and i32 %15, 7
  %22 = shl i32 %20, %21
  %23 = lshr i32 %22, 21
  %24 = add i32 %15, 11
  %25 = tail call i32 @llvm.umin.i32(i32 %5, i32 %24)
  store i32 %25, ptr %2, align 8, !tbaa !37
  %26 = lshr i32 %13, 5
  %27 = and i32 %26, 134215680
  %28 = or disjoint i32 %23, %27
  ret i32 %28
}